; Function Attrs: mustprogress nounwind uwtable
define internal fastcc void @_ZN12_GLOBAL__N_123MicrosoftCXXNameMangler17mangleTagTypeKindEN5clang11TagTypeKindE(ptr %.8.val, i32 noundef %0) unnamed_addr #0 align 2 {
  switch i32 %0, label %_ZN4llvm11raw_ostreamlsEc.exit [
    i32 2, label %2
    i32 0, label %11
    i32 1, label %11
    i32 3, label %20
    i32 4, label %29
  ]

2:                                                ; preds = %1
  %3 = getelementptr inbounds nuw i8, ptr %.8.val, i64 32
  %4 = load ptr, ptr %3, align 8
  %5 = getelementptr inbounds nuw i8, ptr %.8.val, i64 24
  %6 = load ptr, ptr %5, align 8
  %.not.i = icmp ult ptr %4, %6
  br i1 %.not.i, label %9, label %7

7:                                                ; preds = %2
  %8 = tail call noundef nonnull align 8 dereferenceable(48) ptr @_ZN4llvm11raw_ostream5writeEh(ptr noundef nonnull align 8 dereferenceable(48) %.8.val, i8 noundef zeroext 84) #21
  br label %_ZN4llvm11raw_ostreamlsEc.exit

9:                                                ; preds = %2
  %10 = getelementptr inbounds i8, ptr %4, i64 1
  store ptr %10, ptr %3, align 8
  store i8 84, ptr %4, align 1
  br label %_ZN4llvm11raw_ostreamlsEc.exit

11:                                               ; preds = %1, %1
  %12 = getelementptr inbounds nuw i8, ptr %.8.val, i64 32
  %13 = load ptr, ptr %12, align 8
  %14 = getelementptr inbounds nuw i8, ptr %.8.val, i64 24
  %15 = load ptr, ptr %14, align 8
  %.not.i1 = icmp ult ptr %13, %15
  br i1 %.not.i1, label %18, label %16

16:                                               ; preds = %11
  %17 = tail call noundef nonnull align 8 dereferenceable(48) ptr @_ZN4llvm11raw_ostream5writeEh(ptr noundef nonnull align 8 dereferenceable(48) %.8.val, i8 noundef zeroext 85) #21
  br label %_ZN4llvm11raw_ostreamlsEc.exit

18:                                               ; preds = %11
  %19 = getelementptr inbounds i8, ptr %13, i64 1
  store ptr %19, ptr %12, align 8
  store i8 85, ptr %13, align 1
  br label %_ZN4llvm11raw_ostreamlsEc.exit

20:                                               ; preds = %1
  %21 = getelementptr inbounds nuw i8, ptr %.8.val, i64 32
  %22 = load ptr, ptr %21, align 8
  %23 = getelementptr inbounds nuw i8, ptr %.8.val, i64 24
  %24 = load ptr, ptr %23, align 8
  %.not.i4 = icmp ult ptr %22, %24
  br i1 %.not.i4, label %27, label %25

25:                                               ; preds = %20
  %26 = tail call noundef nonnull align 8 dereferenceable(48) ptr @_ZN4llvm11raw_ostream5writeEh(ptr noundef nonnull align 8 dereferenceable(48) %.8.val, i8 noundef zeroext 86) #21
  br label %_ZN4llvm11raw_ostreamlsEc.exit

27:                                               ; preds = %20
  %28 = getelementptr inbounds i8, ptr %22, i64 1
  store ptr %28, ptr %21, align 8
  store i8 86, ptr %22, align 1
  br label %_ZN4llvm11raw_ostreamlsEc.exit

29:                                               ; preds = %1
  %30 = getelementptr inbounds nuw i8, ptr %.8.val, i64 24
  %31 = load ptr, ptr %30, align 8
  %32 = getelementptr inbounds nuw i8, ptr %.8.val, i64 32
  %33 = load ptr, ptr %32, align 8
  %34 = ptrtoint ptr %31 to i64
  %35 = ptrtoint ptr %33 to i64
  %36 = sub i64 %34, %35
  %37 = icmp ult i64 %36, 2
  br i1 %37, label %38, label %40

38:                                               ; preds = %29
  %39 = tail call noundef nonnull align 8 dereferenceable(48) ptr @_ZN4llvm11raw_ostream5writeEPKcm(ptr noundef nonnull align 8 dereferenceable(48) %.8.val, ptr noundef nonnull @.str.48, i64 noundef 2) #21
  br label %_ZN4llvm11raw_ostreamlsEc.exit

40:                                               ; preds = %29
  store i16 13399, ptr %33, align 1
  %41 = load ptr, ptr %32, align 8
  %42 = getelementptr inbounds i8, ptr %41, i64 2
  store ptr %42, ptr %32, align 8
  br label %_ZN4llvm11raw_ostreamlsEc.exit

_ZN4llvm11raw_ostreamlsEc.exit:                   ; preds = %40, %38, %27, %25, %18, %16, %9, %7, %1
  ret void
}